target datalayout = "e-m:e-p270:32:32-p271:32:32-p272:64:64-i64:64-i128:128-f80:128-n8:16:32:64-S128"
target triple = "x86_64-pc-linux-gnu"

%class.Symbol = type { i32, i16, [2 x i8] }
%class.SignatureStream = type { ptr, i32, i32, i32, i32, i8, i32, ptr, ptr }

@.str = private unnamed_addr constant [3 x i8] c"%s\00", align 1
@.str.5 = private unnamed_addr constant [3 x i8] c", \00", align 1

; Function Attrs: mustprogress nounwind uwtable
define linkonce_odr hidden noundef ptr @_ZNK6Symbol4baseEv(ptr noundef nonnull align 4 dereferenceable(8) %0) #1 comdat align 2 {
  %2 = alloca ptr, align 8
  store ptr %0, ptr %2, align 8
  %3 = load ptr, ptr %2, align 8
  %4 = getelementptr inbounds %class.Symbol, ptr %3, i32 0, i32 2
  %5 = getelementptr inbounds [2 x i8], ptr %4, i64 0, i64 0
  ret ptr %5
}

; Function Attrs: mustprogress nounwind uwtable
define linkonce_odr hidden noundef zeroext i1 @_ZN9Signature12has_envelopeEc(i8 noundef signext %0) #1 comdat align 2 {
  %2 = alloca i8, align 1
  store i8 %0, ptr %2, align 1
  %3 = load i8, ptr %2, align 1
  %4 = sext i8 %3 to i32
  %5 = icmp eq i32 %4, 76
  ret i1 %5
}

; Function Attrs: mustprogress nounwind uwtable
define linkonce_odr hidden noundef signext i8 @_ZNK6Symbol7char_atEi(ptr noundef nonnull align 4 dereferenceable(8) %0, i32 noundef %1) #1 comdat align 2 {
  %3 = alloca ptr, align 8
  %4 = alloca i32, align 4
  store ptr %0, ptr %3, align 8
  store i32 %1, ptr %4, align 4
  %5 = load ptr, ptr %3, align 8
  %6 = call noundef ptr @_ZNK6Symbol4baseEv(ptr noundef nonnull align 4 dereferenceable(8) %5)
  %7 = load i32, ptr %4, align 4
  %8 = sext i32 %7 to i64
  %9 = getelementptr inbounds i8, ptr %6, i64 %8
  %10 = load i8, ptr %9, align 1
  ret i8 %10
}

; Function Attrs: mustprogress nounwind uwtable
define linkonce_odr hidden noundef zeroext i1 @_ZNK15SignatureStream12has_envelopeEv(ptr noundef nonnull align 8 dereferenceable(48) %0) #1 comdat align 2 {
  %2 = alloca i1, align 1
  %3 = alloca ptr, align 8
  store ptr %0, ptr %3, align 8
  %4 = load ptr, ptr %3, align 8
  %5 = getelementptr inbounds %class.SignatureStream, ptr %4, i32 0, i32 0
  %6 = load ptr, ptr %5, align 8
  %7 = getelementptr inbounds %class.SignatureStream, ptr %4, i32 0, i32 1
  %8 = load i32, ptr %7, align 8
  %9 = call noundef signext i8 @_ZNK6Symbol7char_atEi(ptr noundef nonnull align 4 dereferenceable(8) %6, i32 noundef %8)
  %10 = call noundef zeroext i1 @_ZN9Signature12has_envelopeEc(i8 noundef signext %9)
  br i1 %10, label %12, label %11

11:                                               ; preds = %1
  store i1 false, ptr %2, align 1
  br label %13

12:                                               ; preds = %1
  store i1 true, ptr %2, align 1
  br label %13

13:                                               ; preds = %12, %11
  %14 = load i1, ptr %2, align 1
  ret i1 %14
}

; Function Attrs: mustprogress nounwind uwtable
define linkonce_odr hidden noundef signext i8 @_ZNK15SignatureStream11raw_char_atEi(ptr noundef nonnull align 8 dereferenceable(48) %0, i32 noundef %1) #1 comdat align 2 {
  %3 = alloca ptr, align 8
  %4 = alloca i32, align 4
  store ptr %0, ptr %3, align 8
  store i32 %1, ptr %4, align 4
  %5 = load ptr, ptr %3, align 8
  %6 = getelementptr inbounds %class.SignatureStream, ptr %5, i32 0, i32 0
  %7 = load ptr, ptr %6, align 8
  %8 = load i32, ptr %4, align 4
  %9 = call noundef signext i8 @_ZNK6Symbol7char_atEi(ptr noundef nonnull align 4 dereferenceable(8) %7, i32 noundef %8)
  ret i8 %9
}

; Function Attrs: mustprogress nounwind uwtable
define linkonce_odr hidden noundef i32 @_ZNK15SignatureStream14raw_symbol_endEv(ptr noundef nonnull align 8 dereferenceable(48) %0) #1 comdat align 2 {
  %2 = alloca ptr, align 8
  store ptr %0, ptr %2, align 8
  %3 = load ptr, ptr %2, align 8
  %4 = getelementptr inbounds %class.SignatureStream, ptr %3, i32 0, i32 2
  %5 = load i32, ptr %4, align 4
  %6 = call noundef zeroext i1 @_ZNK15SignatureStream12has_envelopeEv(ptr noundef nonnull align 8 dereferenceable(48) %3)
  %7 = select i1 %6, i32 1, i32 0
  %8 = sub nsw i32 %5, %7
  ret i32 %8
}

; Function Attrs: mustprogress nounwind uwtable
define linkonce_odr hidden noundef i32 @_ZNK15SignatureStream16raw_symbol_beginEv(ptr noundef nonnull align 8 dereferenceable(48) %0) #1 comdat align 2 {
  %2 = alloca ptr, align 8
  store ptr %0, ptr %2, align 8
  %3 = load ptr, ptr %2, align 8
  %4 = getelementptr inbounds %class.SignatureStream, ptr %3, i32 0, i32 1
  %5 = load i32, ptr %4, align 8
  %6 = call noundef zeroext i1 @_ZNK15SignatureStream12has_envelopeEv(ptr noundef nonnull align 8 dereferenceable(48) %3)
  %7 = select i1 %6, i32 1, i32 0
  %8 = add nsw i32 %5, %7
  ret i32 %8
}

; Function Attrs: mustprogress nounwind uwtable
define linkonce_odr hidden noundef zeroext i1 @_Z17is_reference_type9BasicTypeb(i8 noundef zeroext %0, i1 noundef zeroext %1) #1 comdat {
  %3 = alloca i8, align 1
  %4 = alloca i8, align 1
  store i8 %0, ptr %3, align 1
  %5 = zext i1 %1 to i8
  store i8 %5, ptr %4, align 1
  %6 = load i8, ptr %3, align 1
  %7 = zext i8 %6 to i32
  %8 = icmp eq i32 %7, 12
  br i1 %8, label %22, label %9

9:                                                ; preds = %2
  %10 = load i8, ptr %3, align 1
  %11 = zext i8 %10 to i32
  %12 = icmp eq i32 %11, 13
  br i1 %12, label %22, label %13

13:                                               ; preds = %9
  %14 = load i8, ptr %4, align 1
  %15 = trunc i8 %14 to i1
  br i1 %15, label %16, label %20

16:                                               ; preds = %13
  %17 = load i8, ptr %3, align 1
  %18 = zext i8 %17 to i32
  %19 = icmp eq i32 %18, 16
  br label %20

20:                                               ; preds = %16, %13
  %21 = phi i1 [ false, %13 ], [ %19, %16 ]
  br label %22

22:                                               ; preds = %20, %9, %2
  %23 = phi i1 [ true, %9 ], [ true, %2 ], [ %21, %20 ]
  ret i1 %23
}

; Function Attrs: mustprogress nounwind uwtable
define linkonce_odr hidden noundef zeroext i8 @_ZNK15SignatureStream4typeEv(ptr noundef nonnull align 8 dereferenceable(48) %0) #1 comdat align 2 {
  %2 = alloca ptr, align 8
  store ptr %0, ptr %2, align 8
  %3 = load ptr, ptr %2, align 8
  %4 = getelementptr inbounds %class.SignatureStream, ptr %3, i32 0, i32 5
  %5 = load i8, ptr %4, align 8
  ret i8 %5
}

; Function Attrs: mustprogress nounwind uwtable
define internal void @_ZL11print_classP12outputStreamRK15SignatureStream(ptr noundef %0, ptr noundef nonnull align 8 dereferenceable(48) %1) #1 {
  %3 = alloca ptr, align 8
  %4 = alloca ptr, align 8
  %5 = alloca i32, align 4
  %6 = alloca i32, align 4
  %7 = alloca i32, align 4
  %8 = alloca i8, align 1
  store ptr %0, ptr %3, align 8
  store ptr %1, ptr %4, align 8
  %9 = load ptr, ptr %4, align 8
  %10 = call noundef i32 @_ZNK15SignatureStream16raw_symbol_beginEv(ptr noundef nonnull align 8 dereferenceable(48) %9)
  store i32 %10, ptr %5, align 4
  %11 = load ptr, ptr %4, align 8
  %12 = call noundef i32 @_ZNK15SignatureStream14raw_symbol_endEv(ptr noundef nonnull align 8 dereferenceable(48) %11)
  store i32 %12, ptr %6, align 4
  %13 = load i32, ptr %5, align 4
  store i32 %13, ptr %7, align 4
  br label %14

14:                                               ; preds = %31, %2
  %15 = load i32, ptr %7, align 4
  %16 = load i32, ptr %6, align 4
  %17 = icmp slt i32 %15, %16
  br i1 %17, label %18, label %34

18:                                               ; preds = %14
  %19 = load ptr, ptr %4, align 8
  %20 = load i32, ptr %7, align 4
  %21 = call noundef signext i8 @_ZNK15SignatureStream11raw_char_atEi(ptr noundef nonnull align 8 dereferenceable(48) %19, i32 noundef %20)
  store i8 %21, ptr %8, align 1
  %22 = load i8, ptr %8, align 1
  %23 = sext i8 %22 to i32
  %24 = icmp eq i32 %23, 47
  br i1 %24, label %25, label %27

25:                                               ; preds = %18
  %26 = load ptr, ptr %3, align 8
  call void @_ZN12outputStream3putEc(ptr noundef nonnull align 8 dereferenceable(56) %26, i8 noundef signext 46)
  br label %30

27:                                               ; preds = %18
  %28 = load ptr, ptr %3, align 8
  %29 = load i8, ptr %8, align 1
  call void @_ZN12outputStream3putEc(ptr noundef nonnull align 8 dereferenceable(56) %28, i8 noundef signext %29)
  br label %30

30:                                               ; preds = %27, %25
  br label %31

31:                                               ; preds = %30
  %32 = load i32, ptr %7, align 4
  %33 = add nsw i32 %32, 1
  store i32 %33, ptr %7, align 4
  br label %14, !llvm.loop !13

34:                                               ; preds = %14
  ret void
}

; Function Attrs: mustprogress nounwind uwtable
define linkonce_odr hidden noundef zeroext i1 @_ZNK15SignatureStream12is_referenceEv(ptr noundef nonnull align 8 dereferenceable(48) %0) #1 comdat align 2 {
  %2 = alloca ptr, align 8
  store ptr %0, ptr %2, align 8
  %3 = load ptr, ptr %2, align 8
  %4 = getelementptr inbounds %class.SignatureStream, ptr %3, i32 0, i32 5
  %5 = load i8, ptr %4, align 8
  %6 = call noundef zeroext i1 @_Z17is_reference_type9BasicTypeb(i8 noundef zeroext %5, i1 noundef zeroext false)
  ret i1 %6
}

; Function Attrs: mustprogress nounwind uwtable
define linkonce_odr hidden noundef zeroext i1 @_ZNK15SignatureStream8is_arrayEv(ptr noundef nonnull align 8 dereferenceable(48) %0) #1 comdat align 2 {
  %2 = alloca ptr, align 8
  store ptr %0, ptr %2, align 8
  %3 = load ptr, ptr %2, align 8
  %4 = getelementptr inbounds %class.SignatureStream, ptr %3, i32 0, i32 5
  %5 = load i8, ptr %4, align 8
  %6 = zext i8 %5 to i32
  %7 = icmp eq i32 %6, 13
  ret i1 %7
}

; Function Attrs: mustprogress nounwind uwtable
define linkonce_odr hidden noundef zeroext i1 @_ZNK15SignatureStream14at_return_typeEv(ptr noundef nonnull align 8 dereferenceable(48) %0) #1 comdat align 2 {
  %2 = alloca ptr, align 8
  store ptr %0, ptr %2, align 8
  %3 = load ptr, ptr %2, align 8
  %4 = getelementptr inbounds %class.SignatureStream, ptr %3, i32 0, i32 6
  %5 = load i32, ptr %4, align 4
  %6 = icmp eq i32 %5, 3
  ret i1 %6
}

; Function Attrs: mustprogress nounwind uwtable
define linkonce_odr hidden noundef zeroext i1 @_ZNK15SignatureStream7is_doneEv(ptr noundef nonnull align 8 dereferenceable(48) %0) #1 comdat align 2 {
  %2 = alloca ptr, align 8
  store ptr %0, ptr %2, align 8
  %3 = load ptr, ptr %2, align 8
  %4 = getelementptr inbounds %class.SignatureStream, ptr %3, i32 0, i32 6
  %5 = load i32, ptr %4, align 4
  %6 = icmp slt i32 %5, 0
  ret i1 %6
}

; Function Attrs: mustprogress nounwind uwtable
define hidden void @_ZN6Symbol38print_as_signature_external_parametersEP12outputStream(ptr noundef nonnull align 4 dereferenceable(8) %0, ptr noundef %1) #1 align 2 {
  %3 = alloca ptr, align 8
  %4 = alloca ptr, align 8
  %5 = alloca i8, align 1
  %6 = alloca %class.SignatureStream, align 8
  %7 = alloca i32, align 4
  store ptr %0, ptr %3, align 8
  store ptr %1, ptr %4, align 8
  %8 = load ptr, ptr %3, align 8
  store i8 1, ptr %5, align 1
  call void @_ZN15SignatureStreamC1EPK6Symbolb(ptr noundef nonnull align 8 dereferenceable(48) %6, ptr noundef %8, i1 noundef zeroext true)
  br label %9

9:                                                ; preds = %35, %2
  %10 = call noundef zeroext i1 @_ZNK15SignatureStream7is_doneEv(ptr noundef nonnull align 8 dereferenceable(48) %6)
  %11 = xor i1 %10, true
  br i1 %11, label %13, label %12

12:                                               ; preds = %9
  store i32 2, ptr %7, align 4
  br label %36

13:                                               ; preds = %9
  %14 = call noundef zeroext i1 @_ZNK15SignatureStream14at_return_typeEv(ptr noundef nonnull align 8 dereferenceable(48) %6)
  br i1 %14, label %15, label %16

15:                                               ; preds = %13
  store i32 2, ptr %7, align 4
  br label %36

16:                                               ; preds = %13
  %17 = load i8, ptr %5, align 1
  %18 = trunc i8 %17 to i1
  br i1 %18, label %21, label %19

19:                                               ; preds = %16
  %20 = load ptr, ptr %4, align 8
  call void (ptr, ptr, ...) @_ZN12outputStream5printEPKcz(ptr noundef nonnull align 8 dereferenceable(56) %20, ptr noundef @.str.5)
  br label %21

21:                                               ; preds = %19, %16
  %22 = call noundef zeroext i1 @_ZNK15SignatureStream8is_arrayEv(ptr noundef nonnull align 8 dereferenceable(48) %6)
  br i1 %22, label %23, label %25

23:                                               ; preds = %21
  %24 = load ptr, ptr %4, align 8
  call void @_ZL11print_arrayP12outputStreamR15SignatureStream(ptr noundef %24, ptr noundef nonnull align 8 dereferenceable(48) %6)
  br label %34

25:                                               ; preds = %21
  %26 = call noundef zeroext i1 @_ZNK15SignatureStream12is_referenceEv(ptr noundef nonnull align 8 dereferenceable(48) %6)
  br i1 %26, label %27, label %29

27:                                               ; preds = %25
  %28 = load ptr, ptr %4, align 8
  call void @_ZL11print_classP12outputStreamRK15SignatureStream(ptr noundef %28, ptr noundef nonnull align 8 dereferenceable(48) %6)
  br label %33

29:                                               ; preds = %25
  %30 = load ptr, ptr %4, align 8
  %31 = call noundef zeroext i8 @_ZNK15SignatureStream4typeEv(ptr noundef nonnull align 8 dereferenceable(48) %6)
  %32 = call noundef ptr @_Z9type2name9BasicType(i8 noundef zeroext %31)
  call void (ptr, ptr, ...) @_ZN12outputStream5printEPKcz(ptr noundef nonnull align 8 dereferenceable(56) %30, ptr noundef @.str, ptr noundef %32)
  br label %33

33:                                               ; preds = %29, %27
  br label %34

34:                                               ; preds = %33, %23
  store i8 0, ptr %5, align 1
  br label %35

35:                                               ; preds = %34
  call void @_ZN15SignatureStream4nextEv(ptr noundef nonnull align 8 dereferenceable(48) %6)
  br label %9, !llvm.loop !14

36:                                               ; preds = %15, %12
  call void @_ZN15SignatureStreamD1Ev(ptr noundef nonnull align 8 dereferenceable(48) %6) #10
  br label %37

37:                                               ; preds = %36
  ret void
}