; Function Attrs: mustprogress nounwind uwtable
define hidden void @_ZN6Symbol38print_as_signature_external_parametersEP12outputStream(ptr noundef nonnull align 4 dereferenceable(8) %0, ptr noundef %1) local_unnamed_addr #1 align 2 {
  %3 = alloca %class.SignatureStream, align 8
  call void @_ZN15SignatureStreamC1EPK6Symbolb(ptr noundef nonnull align 8 dereferenceable(48) %3, ptr noundef nonnull %0, i1 noundef zeroext true) #17
  %4 = getelementptr inbounds i8, ptr %3, i64 28
  %5 = load i32, ptr %4, align 4
  %6 = icmp slt i32 %5, 0
  %7 = icmp eq i32 %5, 3
  %or.cond5 = or i1 %6, %7
  br i1 %or.cond5, label %._crit_edge, label %.lr.ph

.lr.ph:                                           ; preds = %2
  %8 = getelementptr inbounds i8, ptr %3, i64 24
  %9 = getelementptr inbounds i8, ptr %3, i64 8
  %10 = getelementptr inbounds i8, ptr %3, i64 12
  br label %12

11:                                               ; preds = %_ZL11print_classP12outputStreamRK15SignatureStream.exit
  call void (ptr, ptr, ...) @_ZN12outputStream5printEPKcz(ptr noundef nonnull align 8 dereferenceable(56) %1, ptr noundef nonnull @.str.5) #17
  br label %12

12:                                               ; preds = %.lr.ph, %11
  %13 = load i8, ptr %8, align 8
  %14 = icmp eq i8 %13, 13
  br i1 %14, label %15, label %16

15:                                               ; preds = %12
  call fastcc void @_ZL11print_arrayP12outputStreamR15SignatureStream(ptr noundef %1, ptr noundef nonnull align 8 dereferenceable(48) %3)
  br label %_ZL11print_classP12outputStreamRK15SignatureStream.exit

16:                                               ; preds = %12
  %17 = and i8 %13, -2
  %or.cond.i.i = icmp eq i8 %17, 12
  br i1 %or.cond.i.i, label %18, label %40

18:                                               ; preds = %16
  %19 = load i32, ptr %9, align 8
  %20 = load ptr, ptr %3, align 8
  %21 = getelementptr inbounds i8, ptr %20, i64 6
  %22 = sext i32 %19 to i64
  %23 = getelementptr inbounds i8, ptr %21, i64 %22
  %24 = load i8, ptr %23, align 1
  %25 = icmp eq i8 %24, 76
  %26 = zext i1 %25 to i32
  %27 = add nsw i32 %19, %26
  %28 = load i32, ptr %10, align 4
  %.neg.i.i = sext i1 %25 to i32
  %29 = add i32 %28, %.neg.i.i
  %30 = icmp slt i32 %27, %29
  br i1 %30, label %.lr.ph.preheader.i, label %_ZL11print_classP12outputStreamRK15SignatureStream.exit

.lr.ph.preheader.i:                               ; preds = %18
  %31 = zext i1 %25 to i64
  %32 = add nsw i64 %31, %22
  %33 = sext i32 %29 to i64
  br label %.lr.ph.i

.lr.ph.i:                                         ; preds = %.lr.ph.i, %.lr.ph.preheader.i
  %indvars.iv.i = phi i64 [ %32, %.lr.ph.preheader.i ], [ %indvars.iv.next.i, %.lr.ph.i ]
  %34 = load ptr, ptr %3, align 8
  %35 = getelementptr inbounds i8, ptr %34, i64 6
  %36 = getelementptr inbounds i8, ptr %35, i64 %indvars.iv.i
  %37 = load i8, ptr %36, align 1
  %38 = icmp eq i8 %37, 47
  %..i = select i1 %38, i8 46, i8 %37
  call void @_ZN12outputStream3putEc(ptr noundef nonnull align 8 dereferenceable(56) %1, i8 noundef signext %..i) #17
  %indvars.iv.next.i = add nsw i64 %indvars.iv.i, 1
  %39 = icmp slt i64 %indvars.iv.next.i, %33
  br i1 %39, label %.lr.ph.i, label %_ZL11print_classP12outputStreamRK15SignatureStream.exit, !llvm.loop !11

40:                                               ; preds = %16
  %41 = call noundef ptr @_Z9type2name9BasicType(i8 noundef zeroext %13) #17
  call void (ptr, ptr, ...) @_ZN12outputStream5printEPKcz(ptr noundef nonnull align 8 dereferenceable(56) %1, ptr noundef nonnull @.str, ptr noundef %41) #17
  br label %_ZL11print_classP12outputStreamRK15SignatureStream.exit

_ZL11print_classP12outputStreamRK15SignatureStream.exit: ; preds = %.lr.ph.i, %18, %40, %15
  call void @_ZN15SignatureStream4nextEv(ptr noundef nonnull align 8 dereferenceable(48) %3) #17
  %42 = load i32, ptr %4, align 4
  %43 = icmp slt i32 %42, 0
  %44 = icmp eq i32 %42, 3
  %or.cond = or i1 %43, %44
  br i1 %or.cond, label %._crit_edge, label %11, !llvm.loop !14

._crit_edge:                                      ; preds = %_ZL11print_classP12outputStreamRK15SignatureStream.exit, %2
  call void @_ZN15SignatureStreamD1Ev(ptr noundef nonnull align 8 dereferenceable(48) %3) #17
  ret void
}